Certificate:
    Data:
        Version: 3 (0x2)
        Serial Number: 1 (0x1)
        Signature Algorithm: sha1WithRSAEncryption
        Issuer: C=KR, ST=SEOUL, L=GURO, O=UbiVelox, OU=ATC, CN=UbATC_Test_CA/emailAddress=sc.kwak@unionplace.co.kr
        Validity
            Not Before: Mar 31 06:59:34 2017 GMT
            Not After : Mar 31 06:59:34 2018 GMT
        Subject: C=KR, ST=SEOUL, O=UbiVelox, OU=ATC, CN=UbATC_Test_CA/emailAddress=sc.kwak@unionplace.co.kr
        Subject Public Key Info:
            Public Key Algorithm: rsaEncryption
            RSA Public Key: (1024 bit)
                Modulus (1024 bit):
                    00:bf:b6:15:bf:6d:f6:40:1e:b8:36:3a:8d:8c:33:
                    25:08:91:7e:ad:8e:89:dd:a4:47:46:95:ce:ce:38:
                    b3:ea:86:46:bc:a1:8e:51:03:30:f8:3a:99:ed:21:
                    ce:3e:e4:81:72:58:d0:47:bc:83:20:db:4a:fb:31:
                    31:33:c1:a2:41:ab:e0:c5:4a:83:15:6d:dd:15:13:
                    e1:bb:07:cf:2e:5a:a3:c8:de:69:26:23:40:9d:ae:
                    36:8e:12:32:02:b7:40:d4:28:83:3e:8f:05:b4:d9:
                    54:69:77:a1:16:53:cd:e4:ff:f1:cf:69:25:64:99:
                    17:37:e9:b6:e8:c3:67:8f:63
                Exponent: 65537 (0x10001)
        X509v3 extensions:
            X509v3 Basic Constraints: 
                CA:FALSE
    Signature Algorithm: sha1WithRSAEncryption
        36:db:6d:be:07:bf:21:05:34:34:1e:b6:d8:d9:b4:86:74:0c:
        09:69:c2:d8:b9:f1:98:d2:ea:cf:b3:7c:b7:77:95:6d:b4:dd:
        52:86:b1:e5:a5:f7:24:99:95:17:a3:ee:cd:9d:fc:e5:0d:a4:
        92:e5:e5:1d:a8:53:b8:46:ec:bd:e4:84:67:4a:7a:69:70:f3:
        5b:cd:bc:e3:99:fd:7a:6b:6a:63:2e:66:84:4a:3b:1b:fe:d0:
        bc:26:17:e6:5e:39:8f:ab:f8:1d:65:b2:6a:43:75:9c:30:93:
        0a:27:55:6b:5c:6a:d2:00:03:5a:5e:ff:9d:04:63:20:d9:02:
        aa:70
-----BEGIN CERTIFICATE-----
MIICkTCCAfqgAwIBAgIBATANBgkqhkiG9w0BAQUFADCBjjELMAkGA1UEBhMCS1Ix
DjAMBgNVBAgTBVNFT1VMMQ0wCwYDVQQHEwRHVVJPMREwDwYDVQQKEwhVYmlWZWxv
eDEMMAoGA1UECxMDQVRDMRYwFAYDVQQDFA1VYkFUQ19UZXN0X0NBMScwJQYJKoZI
hvcNAQkBFhhzYy5rd2FrQHVuaW9ucGxhY2UuY28ua3IwHhcNMTcwMzMxMDY1OTM0
WhcNMTgwMzMxMDY1OTM0WjB/MQswCQYDVQQGEwJLUjEOMAwGA1UECBMFU0VPVUwx
ETAPBgNVBAoTCFViaVZlbG94MQwwCgYDVQQLEwNBVEMxFjAUBgNVBAMUDVViQVRD
X1Rlc3RfQ0ExJzAlBgkqhkiG9w0BCQEWGHNjLmt3YWtAdW5pb25wbGFjZS5jby5r
cjCBnzANBgkqhkiG9w0BAQEFAAOBjQAwgYkCgYEAv7YVv232QB64NjqNjDMlCJF+
rY6J3aRHRpXOzjiz6oZGvKGOUQMw+DqZ7SHOPuSBcljQR7yDINtK+zExM8GiQavg
xUqDFW3dFRPhuwfPLlqjyN5pJiNAna42jhIyArdA1CiDPo8FtNlUaXehFlPN5P/x
z2klZJkXN+m26MNnj2MCAwEAAaMNMAswCQYDVR0TBAIwADANBgkqhkiG9w0BAQUF
AAOBgQA2222+B78hBTQ0HrbY2bSGdAwJacLYufGY0urPs3y3d5VttN1ShrHlpfck
mZUXo+7NnfzlDaSS5eUdqFO4Ruy95IRnSnppcPNbzbzjmf16a2pjLmaESjsb/tC8
JhfmXjmPq/gdZbJqQ3WcMJMKJ1VrXGrSAANaXv+dBGMg2QKqcA==
-----END CERTIFICATE-----
